target datalayout = "e-m:e-p270:32:32-p271:32:32-p272:64:64-i64:64-i128:128-f80:128-n8:16:32:64-S128"
target triple = "x86_64-pc-linux-gnu"

%struct.mbedtls_nist_kw_context = type { %struct.mbedtls_cipher_context_t }
%struct.mbedtls_cipher_context_t = type { ptr, i32, i32, ptr, ptr, [16 x i8], i64, [16 x i8], i64, ptr, ptr }
%struct.mbedtls_cipher_info_t = type { ptr, i32 }

; Function Attrs: inlinehint nounwind uwtable
define internal i64 @mbedtls_cipher_info_get_block_size(ptr noundef %0) #4 {
  %2 = alloca i64, align 8
  %3 = alloca ptr, align 8
  store ptr %0, ptr %3, align 8, !tbaa !11
  %4 = load ptr, ptr %3, align 8, !tbaa !11
  %5 = icmp eq ptr %4, null
  br i1 %5, label %6, label %7

6:                                                ; preds = %1
  store i64 0, ptr %2, align 8
  br label %13

7:                                                ; preds = %1
  %8 = load ptr, ptr %3, align 8, !tbaa !11
  %9 = getelementptr inbounds nuw %struct.mbedtls_cipher_info_t, ptr %8, i32 0, i32 1
  %10 = load i32, ptr %9, align 8
  %11 = and i32 %10, 31
  %12 = zext i32 %11 to i64
  store i64 %12, ptr %2, align 8
  br label %13

13:                                               ; preds = %7, %6
  %14 = load i64, ptr %2, align 8
  ret i64 %14
}

; Function Attrs: nounwind uwtable
define hidden i32 @mbedtls_nist_kw_setkey(ptr noundef %0, i32 noundef %1, ptr noundef %2, i32 noundef %3, i32 noundef %4) #0 {
  %6 = alloca i32, align 4
  %7 = alloca ptr, align 8
  %8 = alloca i32, align 4
  %9 = alloca ptr, align 8
  %10 = alloca i32, align 4
  %11 = alloca i32, align 4
  %12 = alloca i32, align 4
  %13 = alloca ptr, align 8
  %14 = alloca i32, align 4
  store ptr %0, ptr %7, align 8, !tbaa !3
  store i32 %1, ptr %8, align 4, !tbaa !7
  store ptr %2, ptr %9, align 8, !tbaa !9
  store i32 %3, ptr %10, align 4, !tbaa !7
  store i32 %4, ptr %11, align 4, !tbaa !7
  call void @llvm.lifetime.start.p0(i64 4, ptr %12) #9
  store i32 -110, ptr %12, align 4, !tbaa !7
  call void @llvm.lifetime.start.p0(i64 8, ptr %13) #9
  %15 = load i32, ptr %8, align 4, !tbaa !7
  %16 = load i32, ptr %10, align 4, !tbaa !7
  %17 = call ptr @mbedtls_cipher_info_from_values(i32 noundef %15, i32 noundef %16, i32 noundef 1)
  store ptr %17, ptr %13, align 8, !tbaa !11
  %18 = load ptr, ptr %13, align 8, !tbaa !11
  %19 = icmp eq ptr %18, null
  br i1 %19, label %20, label %21

20:                                               ; preds = %5
  store i32 -24832, ptr %6, align 4
  store i32 1, ptr %14, align 4
  br label %53

21:                                               ; preds = %5
  %22 = load ptr, ptr %13, align 8, !tbaa !11
  %23 = call i64 @mbedtls_cipher_info_get_block_size(ptr noundef %22)
  %24 = icmp ne i64 %23, 16
  br i1 %24, label %25, label %26

25:                                               ; preds = %21
  store i32 -24832, ptr %6, align 4
  store i32 1, ptr %14, align 4
  br label %53

26:                                               ; preds = %21
  %27 = load i32, ptr %8, align 4, !tbaa !7
  %28 = icmp ne i32 %27, 2
  br i1 %28, label %29, label %30

29:                                               ; preds = %26
  store i32 -24704, ptr %6, align 4
  store i32 1, ptr %14, align 4
  br label %53

30:                                               ; preds = %26
  %31 = load ptr, ptr %7, align 8, !tbaa !3
  %32 = getelementptr inbounds nuw %struct.mbedtls_nist_kw_context, ptr %31, i32 0, i32 0
  call void @mbedtls_cipher_free(ptr noundef %32)
  %33 = load ptr, ptr %7, align 8, !tbaa !3
  %34 = getelementptr inbounds nuw %struct.mbedtls_nist_kw_context, ptr %33, i32 0, i32 0
  %35 = load ptr, ptr %13, align 8, !tbaa !11
  %36 = call i32 @mbedtls_cipher_setup(ptr noundef %34, ptr noundef %35)
  store i32 %36, ptr %12, align 4, !tbaa !7
  %37 = icmp ne i32 %36, 0
  br i1 %37, label %38, label %40

38:                                               ; preds = %30
  %39 = load i32, ptr %12, align 4, !tbaa !7
  store i32 %39, ptr %6, align 4
  store i32 1, ptr %14, align 4
  br label %53

40:                                               ; preds = %30
  %41 = load ptr, ptr %7, align 8, !tbaa !3
  %42 = getelementptr inbounds nuw %struct.mbedtls_nist_kw_context, ptr %41, i32 0, i32 0
  %43 = load ptr, ptr %9, align 8, !tbaa !9
  %44 = load i32, ptr %10, align 4, !tbaa !7
  %45 = load i32, ptr %11, align 4, !tbaa !7
  %46 = icmp ne i32 %45, 0
  %47 = select i1 %46, i32 1, i32 0
  %48 = call i32 @mbedtls_cipher_setkey(ptr noundef %42, ptr noundef %43, i32 noundef %44, i32 noundef %47)
  store i32 %48, ptr %12, align 4, !tbaa !7
  %49 = icmp ne i32 %48, 0
  br i1 %49, label %50, label %52

50:                                               ; preds = %40
  %51 = load i32, ptr %12, align 4, !tbaa !7
  store i32 %51, ptr %6, align 4
  store i32 1, ptr %14, align 4
  br label %53

52:                                               ; preds = %40
  store i32 0, ptr %6, align 4
  store i32 1, ptr %14, align 4
  br label %53

53:                                               ; preds = %52, %50, %38, %29, %25, %20
  call void @llvm.lifetime.end.p0(i64 8, ptr %13) #9
  call void @llvm.lifetime.end.p0(i64 4, ptr %12) #9
  %54 = load i32, ptr %6, align 4
  ret i32 %54
}