; Function Attrs: nounwind uwtable
define hidden i32 @mbedtls_nist_kw_setkey(ptr noundef %0, i32 noundef %1, ptr noundef %2, i32 noundef %3, i32 noundef %4) local_unnamed_addr #2 {
  %6 = tail call ptr @mbedtls_cipher_info_from_values(i32 noundef %1, i32 noundef %3, i32 noundef 1) #11
  %7 = icmp eq ptr %6, null
  br i1 %7, label %17, label %8

8:                                                ; preds = %5
  %9 = getelementptr i8, ptr %6, i64 8
  %.val = load i32, ptr %9, align 8
  %10 = and i32 %.val, 31
  %.not = icmp eq i32 %10, 16
  br i1 %.not, label %11, label %17

11:                                               ; preds = %8
  %.not17 = icmp eq i32 %1, 2
  br i1 %.not17, label %12, label %17

12:                                               ; preds = %11
  tail call void @mbedtls_cipher_free(ptr noundef %0) #11
  %13 = tail call i32 @mbedtls_cipher_setup(ptr noundef %0, ptr noundef nonnull %6) #11
  %.not18 = icmp eq i32 %13, 0
  br i1 %.not18, label %14, label %17

14:                                               ; preds = %12
  %.not19 = icmp ne i32 %4, 0
  %15 = zext i1 %.not19 to i32
  %16 = tail call i32 @mbedtls_cipher_setkey(ptr noundef %0, ptr noundef %2, i32 noundef %3, i32 noundef %15) #11
  br label %17

17:                                               ; preds = %14, %12, %11, %8, %5
  %.0 = phi i32 [ -24832, %5 ], [ -24832, %8 ], [ -24704, %11 ], [ %13, %12 ], [ %16, %14 ]
  ret i32 %.0
}